; Function Attrs: mustprogress uwtable
define void @_ZN7rocksdb5FatalERKSt10shared_ptrINS_6LoggerEEPKcz(ptr noundef nonnull readonly align 8 captures(none) dereferenceable(16) %0, ptr noundef %1, ...) local_unnamed_addr #4 {
  %3 = alloca [1 x %struct.__va_list_tag], align 16
  call void @llvm.lifetime.start.p0(i64 24, ptr nonnull %3) #37
  call void @llvm.va_start.p0(ptr nonnull %3)
  %4 = load ptr, ptr %0, align 8, !tbaa !229
  %.not.i = icmp eq ptr %4, null
  br i1 %.not.i, label %_ZN7rocksdbL6FatalvEPNS_6LoggerEPKcP13__va_list_tag.exit, label %5

5:                                                ; preds = %2
  %6 = load ptr, ptr %4, align 8, !tbaa !18
  %7 = getelementptr inbounds nuw i8, ptr %6, i64 64
  %8 = load ptr, ptr %7, align 8
  %9 = call noundef zeroext i8 %8(ptr noundef nonnull align 8 dereferenceable(10) %4)
  %10 = icmp ult i8 %9, 5
  br i1 %10, label %11, label %_ZN7rocksdbL6FatalvEPNS_6LoggerEPKcP13__va_list_tag.exit

11:                                               ; preds = %5
  %12 = load ptr, ptr %4, align 8, !tbaa !18
  %13 = getelementptr inbounds nuw i8, ptr %12, i64 40
  %14 = load ptr, ptr %13, align 8
  call void %14(ptr noundef nonnull align 8 dereferenceable(10) %4, i8 noundef zeroext 4, ptr noundef %1, ptr noundef nonnull %3)
  br label %_ZN7rocksdbL6FatalvEPNS_6LoggerEPKcP13__va_list_tag.exit

_ZN7rocksdbL6FatalvEPNS_6LoggerEPKcP13__va_list_tag.exit: ; preds = %2, %5, %11
  call void @llvm.va_end.p0(ptr nonnull %3)
  call void @llvm.lifetime.end.p0(i64 24, ptr nonnull %3) #37
  ret void
}